target datalayout = "e-m:e-p270:32:32-p271:32:32-p272:64:64-i64:64-i128:128-f80:128-n8:16:32:64-S128"
target triple = "x86_64-pc-linux-gnu"

%"class.arrow::compute::FunctionOptions" = type { ptr, ptr }
%"class.arrow::compute::ModeOptions" = type { %"class.arrow::compute::FunctionOptions", i64, i8, i32 }

@_ZN5arrow7compute8internal12_GLOBAL__N_116kModeOptionsTypeE = internal global ptr null, align 8
@_ZTVN5arrow7compute11ModeOptionsE = linkonce_odr unnamed_addr constant { [4 x ptr] } { [4 x ptr] [ptr null, ptr @_ZTIN5arrow7compute11ModeOptionsE, ptr @_ZN5arrow4util18EqualityComparableINS_7compute15FunctionOptionsEED2Ev, ptr @_ZN5arrow7compute11ModeOptionsD0Ev] }, comdat, align 8
@_ZTVN5arrow7compute15FunctionOptionsE = linkonce_odr unnamed_addr constant { [4 x ptr] } { [4 x ptr] [ptr null, ptr @_ZTIN5arrow7compute15FunctionOptionsE, ptr @_ZN5arrow4util18EqualityComparableINS_7compute15FunctionOptionsEED2Ev, ptr @_ZN5arrow7compute15FunctionOptionsD0Ev] }, comdat, align 8

; Function Attrs: mustprogress nounwind uwtable
define linkonce_odr void @_ZN5arrow7compute15FunctionOptionsC2EPKNS0_19FunctionOptionsTypeE(ptr noundef nonnull align 8 dereferenceable(16) %0, ptr noundef %1) unnamed_addr #0 comdat align 2 {
  %3 = alloca ptr, align 8
  %4 = alloca ptr, align 8
  store ptr %0, ptr %3, align 8, !tbaa !145
  store ptr %1, ptr %4, align 8, !tbaa !53
  %5 = load ptr, ptr %3, align 8
  store ptr getelementptr inbounds inrange(-16, 16) ({ [4 x ptr] }, ptr @_ZTVN5arrow7compute15FunctionOptionsE, i32 0, i32 0, i32 2), ptr %5, align 8, !tbaa !137
  %6 = getelementptr inbounds nuw %"class.arrow::compute::FunctionOptions", ptr %5, i32 0, i32 1
  %7 = load ptr, ptr %4, align 8, !tbaa !53
  store ptr %7, ptr %6, align 8, !tbaa !147
  ret void
}

; Function Attrs: mustprogress uwtable
define void @_ZN5arrow7compute11ModeOptionsC2Elbj(ptr noundef nonnull align 8 dereferenceable(32) %0, i64 noundef %1, i1 noundef zeroext %2, i32 noundef %3) unnamed_addr #2 align 2 {
  %5 = alloca ptr, align 8
  %6 = alloca i64, align 8
  %7 = alloca i8, align 1
  %8 = alloca i32, align 4
  store ptr %0, ptr %5, align 8, !tbaa !154
  store i64 %1, ptr %6, align 8, !tbaa !43
  %9 = zext i1 %2 to i8
  store i8 %9, ptr %7, align 1, !tbaa !135
  store i32 %3, ptr %8, align 4, !tbaa !8
  %10 = load ptr, ptr %5, align 8
  %11 = load ptr, ptr @_ZN5arrow7compute8internal12_GLOBAL__N_116kModeOptionsTypeE, align 8, !tbaa !53
  call void @_ZN5arrow7compute15FunctionOptionsC2EPKNS0_19FunctionOptionsTypeE(ptr noundef nonnull align 8 dereferenceable(16) %10, ptr noundef %11)
  store ptr getelementptr inbounds inrange(-16, 16) ({ [4 x ptr] }, ptr @_ZTVN5arrow7compute11ModeOptionsE, i32 0, i32 0, i32 2), ptr %10, align 8, !tbaa !137
  %12 = getelementptr inbounds nuw %"class.arrow::compute::ModeOptions", ptr %10, i32 0, i32 1
  %13 = load i64, ptr %6, align 8, !tbaa !43
  store i64 %13, ptr %12, align 8, !tbaa !156
  %14 = getelementptr inbounds nuw %"class.arrow::compute::ModeOptions", ptr %10, i32 0, i32 2
  %15 = load i8, ptr %7, align 1, !tbaa !135, !range !139, !noundef !140
  %16 = trunc i8 %15 to i1
  %17 = zext i1 %16 to i8
  store i8 %17, ptr %14, align 8, !tbaa !158
  %18 = getelementptr inbounds nuw %"class.arrow::compute::ModeOptions", ptr %10, i32 0, i32 3
  %19 = load i32, ptr %8, align 4, !tbaa !8
  store i32 %19, ptr %18, align 4, !tbaa !159
  ret void
}