; Function Attrs: mustprogress nofree norecurse nosync nounwind willreturn memory(read, argmem: write, inaccessiblemem: none) uwtable
define void @_ZN5arrow7compute11ModeOptionsC2Elbj(ptr noundef nonnull writeonly align 8 captures(none) dereferenceable(32) initializes((0, 25), (28, 32)) %0, i64 noundef %1, i1 noundef zeroext %2, i32 noundef %3) unnamed_addr #2 align 2 {
  %5 = zext i1 %2 to i8
  %6 = load ptr, ptr @_ZN5arrow7compute8internal12_GLOBAL__N_116kModeOptionsTypeE, align 8, !tbaa !32
  %7 = getelementptr inbounds nuw i8, ptr %0, i64 8
  store ptr %6, ptr %7, align 8, !tbaa !35
  store ptr getelementptr inbounds nuw inrange(-16, 16) (i8, ptr @_ZTVN5arrow7compute11ModeOptionsE, i64 16), ptr %0, align 8, !tbaa !37
  %8 = getelementptr inbounds nuw i8, ptr %0, i64 16
  store i64 %1, ptr %8, align 8, !tbaa !46
  %9 = getelementptr inbounds nuw i8, ptr %0, i64 24
  store i8 %5, ptr %9, align 8, !tbaa !48
  %10 = getelementptr inbounds nuw i8, ptr %0, i64 28
  store i32 %3, ptr %10, align 4, !tbaa !49
  ret void
}